target datalayout = "e-m:e-p270:32:32-p271:32:32-p272:64:64-i64:64-i128:128-f80:128-n8:16:32:64-S128"
target triple = "x86_64-pc-linux-gnu"

%"class.google::protobuf::internal::EpsCopyInputStream" = type { ptr, ptr, ptr, i32, i32, ptr, [32 x i8], i64, i32, i32 }

; Function Attrs: mustprogress uwtable
define hidden noundef ptr @_ZN6google8protobuf8internal18EpsCopyInputStream8InitFromEPNS0_2io19ZeroCopyInputStreamE(ptr noundef nonnull align 8 dereferenceable(88) %0, ptr noundef %1) #4 align 2 {
  %3 = alloca ptr, align 8
  %4 = alloca ptr, align 8
  %5 = alloca ptr, align 8
  %6 = alloca ptr, align 8
  %7 = alloca i32, align 4
  %8 = alloca ptr, align 8
  %9 = alloca i32, align 4
  %10 = alloca ptr, align 8
  store ptr %0, ptr %4, align 8, !tbaa !3
  store ptr %1, ptr %5, align 8, !tbaa !73
  %11 = load ptr, ptr %4, align 8
  %12 = load ptr, ptr %5, align 8, !tbaa !73
  %13 = getelementptr inbounds nuw %"class.google::protobuf::internal::EpsCopyInputStream", ptr %11, i32 0, i32 5
  store ptr %12, ptr %13, align 8, !tbaa !74
  call void @llvm.lifetime.start.p0(i64 8, ptr %6) #3
  call void @llvm.lifetime.start.p0(i64 4, ptr %7) #3
  %14 = getelementptr inbounds nuw %"class.google::protobuf::internal::EpsCopyInputStream", ptr %11, i32 0, i32 4
  store i32 2147483647, ptr %14, align 4, !tbaa !8
  %15 = load ptr, ptr %5, align 8, !tbaa !73
  %16 = load ptr, ptr %15, align 8, !tbaa !75
  %17 = getelementptr inbounds ptr, ptr %16, i64 2
  %18 = load ptr, ptr %17, align 8
  %19 = call noundef zeroext i1 %18(ptr noundef nonnull align 8 dereferenceable(8) %15, ptr noundef %6, ptr noundef %7)
  br i1 %19, label %20, label %72

20:                                               ; preds = %2
  %21 = load i32, ptr %7, align 4, !tbaa !19
  %22 = getelementptr inbounds nuw %"class.google::protobuf::internal::EpsCopyInputStream", ptr %11, i32 0, i32 9
  %23 = load i32, ptr %22, align 4, !tbaa !24
  %24 = sub nsw i32 %23, %21
  store i32 %24, ptr %22, align 4, !tbaa !24
  %25 = load i32, ptr %7, align 4, !tbaa !19
  %26 = icmp sgt i32 %25, 16
  br i1 %26, label %27, label %51

27:                                               ; preds = %20
  call void @llvm.lifetime.start.p0(i64 8, ptr %8) #3
  %28 = load ptr, ptr %6, align 8, !tbaa !25
  store ptr %28, ptr %8, align 8, !tbaa !16
  %29 = load i32, ptr %7, align 4, !tbaa !19
  %30 = sub nsw i32 %29, 16
  %31 = getelementptr inbounds nuw %"class.google::protobuf::internal::EpsCopyInputStream", ptr %11, i32 0, i32 4
  %32 = load i32, ptr %31, align 4, !tbaa !8
  %33 = sub nsw i32 %32, %30
  store i32 %33, ptr %31, align 4, !tbaa !8
  %34 = load ptr, ptr %8, align 8, !tbaa !16
  %35 = load i32, ptr %7, align 4, !tbaa !19
  %36 = sext i32 %35 to i64
  %37 = getelementptr inbounds i8, ptr %34, i64 %36
  %38 = getelementptr inbounds i8, ptr %37, i64 -16
  %39 = getelementptr inbounds nuw %"class.google::protobuf::internal::EpsCopyInputStream", ptr %11, i32 0, i32 1
  store ptr %38, ptr %39, align 8, !tbaa !17
  %40 = getelementptr inbounds nuw %"class.google::protobuf::internal::EpsCopyInputStream", ptr %11, i32 0, i32 0
  store ptr %38, ptr %40, align 8, !tbaa !18
  %41 = getelementptr inbounds nuw %"class.google::protobuf::internal::EpsCopyInputStream", ptr %11, i32 0, i32 6
  %42 = getelementptr inbounds [32 x i8], ptr %41, i64 0, i64 0
  %43 = getelementptr inbounds nuw %"class.google::protobuf::internal::EpsCopyInputStream", ptr %11, i32 0, i32 2
  store ptr %42, ptr %43, align 8, !tbaa !20
  %44 = getelementptr inbounds nuw %"class.google::protobuf::internal::EpsCopyInputStream", ptr %11, i32 0, i32 7
  %45 = load i64, ptr %44, align 8, !tbaa !23
  %46 = icmp eq i64 %45, 1
  br i1 %46, label %47, label %49

47:                                               ; preds = %27
  %48 = getelementptr inbounds nuw %"class.google::protobuf::internal::EpsCopyInputStream", ptr %11, i32 0, i32 7
  store i64 2, ptr %48, align 8, !tbaa !23
  br label %49

49:                                               ; preds = %47, %27
  %50 = load ptr, ptr %8, align 8, !tbaa !16
  store ptr %50, ptr %3, align 8
  store i32 1, ptr %9, align 4
  call void @llvm.lifetime.end.p0(i64 8, ptr %8) #3
  br label %82

51:                                               ; preds = %20
  %52 = getelementptr inbounds nuw %"class.google::protobuf::internal::EpsCopyInputStream", ptr %11, i32 0, i32 6
  %53 = getelementptr inbounds [32 x i8], ptr %52, i64 0, i64 0
  %54 = getelementptr inbounds i8, ptr %53, i64 16
  %55 = getelementptr inbounds nuw %"class.google::protobuf::internal::EpsCopyInputStream", ptr %11, i32 0, i32 1
  store ptr %54, ptr %55, align 8, !tbaa !17
  %56 = getelementptr inbounds nuw %"class.google::protobuf::internal::EpsCopyInputStream", ptr %11, i32 0, i32 0
  store ptr %54, ptr %56, align 8, !tbaa !18
  %57 = getelementptr inbounds nuw %"class.google::protobuf::internal::EpsCopyInputStream", ptr %11, i32 0, i32 6
  %58 = getelementptr inbounds [32 x i8], ptr %57, i64 0, i64 0
  %59 = getelementptr inbounds nuw %"class.google::protobuf::internal::EpsCopyInputStream", ptr %11, i32 0, i32 2
  store ptr %58, ptr %59, align 8, !tbaa !20
  call void @llvm.lifetime.start.p0(i64 8, ptr %10) #3
  %60 = getelementptr inbounds nuw %"class.google::protobuf::internal::EpsCopyInputStream", ptr %11, i32 0, i32 6
  %61 = getelementptr inbounds [32 x i8], ptr %60, i64 0, i64 0
  %62 = getelementptr inbounds i8, ptr %61, i64 32
  %63 = load i32, ptr %7, align 4, !tbaa !19
  %64 = sext i32 %63 to i64
  %65 = sub i64 0, %64
  %66 = getelementptr inbounds i8, ptr %62, i64 %65
  store ptr %66, ptr %10, align 8, !tbaa !16
  %67 = load ptr, ptr %10, align 8, !tbaa !16
  %68 = load ptr, ptr %6, align 8, !tbaa !25
  %69 = load i32, ptr %7, align 4, !tbaa !19
  %70 = sext i32 %69 to i64
  call void @llvm.memcpy.p0.p0.i64(ptr align 1 %67, ptr align 1 %68, i64 %70, i1 false)
  %71 = load ptr, ptr %10, align 8, !tbaa !16
  store ptr %71, ptr %3, align 8
  store i32 1, ptr %9, align 4
  call void @llvm.lifetime.end.p0(i64 8, ptr %10) #3
  br label %82

72:                                               ; preds = %2
  %73 = getelementptr inbounds nuw %"class.google::protobuf::internal::EpsCopyInputStream", ptr %11, i32 0, i32 9
  store i32 0, ptr %73, align 4, !tbaa !24
  %74 = getelementptr inbounds nuw %"class.google::protobuf::internal::EpsCopyInputStream", ptr %11, i32 0, i32 2
  store ptr null, ptr %74, align 8, !tbaa !20
  %75 = getelementptr inbounds nuw %"class.google::protobuf::internal::EpsCopyInputStream", ptr %11, i32 0, i32 3
  store i32 0, ptr %75, align 8, !tbaa !21
  %76 = getelementptr inbounds nuw %"class.google::protobuf::internal::EpsCopyInputStream", ptr %11, i32 0, i32 6
  %77 = getelementptr inbounds [32 x i8], ptr %76, i64 0, i64 0
  %78 = getelementptr inbounds nuw %"class.google::protobuf::internal::EpsCopyInputStream", ptr %11, i32 0, i32 1
  store ptr %77, ptr %78, align 8, !tbaa !17
  %79 = getelementptr inbounds nuw %"class.google::protobuf::internal::EpsCopyInputStream", ptr %11, i32 0, i32 0
  store ptr %77, ptr %79, align 8, !tbaa !18
  %80 = getelementptr inbounds nuw %"class.google::protobuf::internal::EpsCopyInputStream", ptr %11, i32 0, i32 6
  %81 = getelementptr inbounds [32 x i8], ptr %80, i64 0, i64 0
  store ptr %81, ptr %3, align 8
  store i32 1, ptr %9, align 4
  br label %82

82:                                               ; preds = %72, %51, %49
  call void @llvm.lifetime.end.p0(i64 4, ptr %7) #3
  call void @llvm.lifetime.end.p0(i64 8, ptr %6) #3
  %83 = load ptr, ptr %3, align 8
  ret ptr %83
}